target datalayout = "e-m:e-p270:32:32-p271:32:32-p272:64:64-i64:64-i128:128-f80:128-n8:16:32:64-S128"
target triple = "x86_64-pc-linux-gnu"

@temp_sockdir = internal global ptr null, align 8
@sockself = internal global [1024 x i8] zeroinitializer, align 16
@socklock = internal global [1024 x i8] zeroinitializer, align 16

; Function Attrs: nounwind uwtable
define internal void @remove_temp() #0 {
  %1 = call i32 @unlink(ptr noundef @sockself) #14
  %2 = call i32 @unlink(ptr noundef @socklock) #14
  %3 = load ptr, ptr @temp_sockdir, align 8
  %4 = call i32 @rmdir(ptr noundef %3) #14
  ret void
}

; Function Attrs: nounwind uwtable
define internal void @signal_remove_temp(i32 noundef %0) #0 {
  %2 = alloca i32, align 4
  store i32 %0, ptr %2, align 4
  call void @remove_temp()
  %3 = load i32, ptr %2, align 4
  call void @pqsignal_fe(i32 noundef %3, ptr noundef null)
  %4 = load i32, ptr %2, align 4
  %5 = call i32 @raise(i32 noundef %4) #14
  ret void
}