; Function Attrs: nounwind uwtable
define internal void @signal_remove_temp(i32 noundef %0) #0 {
  %2 = tail call i32 @unlink(ptr noundef nonnull @sockself) #22
  %3 = tail call i32 @unlink(ptr noundef nonnull @socklock) #22
  %4 = load ptr, ptr @temp_sockdir, align 8
  %5 = tail call i32 @rmdir(ptr noundef %4) #22
  tail call void @pqsignal_fe(i32 noundef %0, ptr noundef null) #22
  %6 = tail call i32 @raise(i32 noundef %0) #22
  ret void
}